; ModuleID = '58/45.c'
source_filename = "58/45.c"
target datalayout = "e-m:e-p270:32:32-p271:32:32-p272:64:64-i64:64-f80:128-n8:16:32:64-S128"
target triple = "x86_64-pc-linux-gnu"

@.str = private unnamed_addr constant [3 x i8] c"%d\00", align 1
@.str.1 = private unnamed_addr constant [4 x i8] c"%d\0A\00", align 1

; Function Attrs: noinline nounwind uwtable
define dso_local void @main() #0 {
  %1 = alloca i32, align 4
  %2 = alloca i32, align 4
  %3 = alloca i32, align 4
  %4 = alloca i32, align 4
  %5 = alloca i32*, align 8
  %6 = alloca i8*, align 8
  %7 = alloca i8**, align 8
  %8 = call i32 (i8*, ...) @__isoc99_scanf(i8* getelementptr inbounds ([3 x i8], [3 x i8]* @.str, i64 0, i64 0), i32* %1)
  %9 = load i32, i32* %1, align 4
  %10 = sext i32 %9 to i64
  %11 = mul i64 %10, 4
  %12 = call noalias i8* @malloc(i64 %11) #3
  %13 = bitcast i8* %12 to i32*
  store i32* %13, i32** %5, align 8
  %14 = call noalias i8* @malloc(i64 80) #3
  store i8* %14, i8** %6, align 8
  %15 = load i8*, i8** %6, align 8
  %16 = call i32 (i8*, ...) bitcast (i32 (...)* @gets to i32 (i8*, ...)*)(i8* %15)
  %17 = load i32, i32* %1, align 4
  %18 = sext i32 %17 to i64
  %19 = mul i64 %18, 8
  %20 = call noalias i8* @malloc(i64 %19) #3
  %21 = bitcast i8* %20 to i8**
  store i8** %21, i8*** %7, align 8
  store i32 0, i32* %2, align 4
  br label %22

22:                                               ; preds = %229, %0
  %23 = load i32, i32* %2, align 4
  %24 = load i32, i32* %1, align 4
  %25 = icmp slt i32 %23, %24
  br i1 %25, label %26, label %232

26:                                               ; preds = %22
  %27 = call noalias i8* @malloc(i64 80) #3
  %28 = load i8**, i8*** %7, align 8
  %29 = load i32, i32* %2, align 4
  %30 = sext i32 %29 to i64
  %31 = getelementptr inbounds i8*, i8** %28, i64 %30
  store i8* %27, i8** %31, align 8
  %32 = load i8**, i8*** %7, align 8
  %33 = load i32, i32* %2, align 4
  %34 = sext i32 %33 to i64
  %35 = getelementptr inbounds i8*, i8** %32, i64 %34
  %36 = load i8*, i8** %35, align 8
  %37 = call i32 (i8*, ...) bitcast (i32 (...)* @gets to i32 (i8*, ...)*)(i8* %36)
  %38 = load i8**, i8*** %7, align 8
  %39 = load i32, i32* %2, align 4
  %40 = sext i32 %39 to i64
  %41 = getelementptr inbounds i8*, i8** %38, i64 %40
  %42 = load i8*, i8** %41, align 8
  %43 = load i8, i8* %42, align 1
  %44 = sext i8 %43 to i32
  %45 = icmp slt i32 %44, 65
  br i1 %45, label %82, label %46

46:                                               ; preds = %26
  %47 = load i8**, i8*** %7, align 8
  %48 = load i32, i32* %2, align 4
  %49 = sext i32 %48 to i64
  %50 = getelementptr inbounds i8*, i8** %47, i64 %49
  %51 = load i8*, i8** %50, align 8
  %52 = load i8, i8* %51, align 1
  %53 = sext i8 %52 to i32
  %54 = icmp sgt i32 %53, 90
  br i1 %54, label %55, label %73

55:                                               ; preds = %46
  %56 = load i8**, i8*** %7, align 8
  %57 = load i32, i32* %2, align 4
  %58 = sext i32 %57 to i64
  %59 = getelementptr inbounds i8*, i8** %56, i64 %58
  %60 = load i8*, i8** %59, align 8
  %61 = load i8, i8* %60, align 1
  %62 = sext i8 %61 to i32
  %63 = icmp slt i32 %62, 97
  br i1 %63, label %64, label %73

64:                                               ; preds = %55
  %65 = load i8**, i8*** %7, align 8
  %66 = load i32, i32* %2, align 4
  %67 = sext i32 %66 to i64
  %68 = getelementptr inbounds i8*, i8** %65, i64 %67
  %69 = load i8*, i8** %68, align 8
  %70 = load i8, i8* %69, align 1
  %71 = sext i8 %70 to i32
  %72 = icmp ne i32 %71, 95
  br i1 %72, label %82, label %73

73:                                               ; preds = %64, %55, %46
  %74 = load i8**, i8*** %7, align 8
  %75 = load i32, i32* %2, align 4
  %76 = sext i32 %75 to i64
  %77 = getelementptr inbounds i8*, i8** %74, i64 %76
  %78 = load i8*, i8** %77, align 8
  %79 = load i8, i8* %78, align 1
  %80 = sext i8 %79 to i32
  %81 = icmp sgt i32 %80, 122
  br i1 %81, label %82, label %87

82:                                               ; preds = %73, %64, %26
  %83 = load i32*, i32** %5, align 8
  %84 = load i32, i32* %2, align 4
  %85 = sext i32 %84 to i64
  %86 = getelementptr inbounds i32, i32* %83, i64 %85
  store i32 0, i32* %86, align 4
  br label %228

87:                                               ; preds = %73
  %88 = load i8**, i8*** %7, align 8
  %89 = load i32, i32* %2, align 4
  %90 = sext i32 %89 to i64
  %91 = getelementptr inbounds i8*, i8** %88, i64 %90
  %92 = load i8*, i8** %91, align 8
  %93 = getelementptr inbounds i8, i8* %92, i64 1
  %94 = load i8, i8* %93, align 1
  %95 = sext i8 %94 to i32
  %96 = icmp eq i32 %95, 0
  br i1 %96, label %97, label %102

97:                                               ; preds = %87
  %98 = load i32*, i32** %5, align 8
  %99 = load i32, i32* %2, align 4
  %100 = sext i32 %99 to i64
  %101 = getelementptr inbounds i32, i32* %98, i64 %100
  store i32 1, i32* %101, align 4
  br label %102

102:                                              ; preds = %97, %87
  store i32 1, i32* %3, align 4
  br label %103

103:                                              ; preds = %224, %102
  %104 = load i32, i32* %3, align 4
  %105 = icmp slt i32 %104, 81
  %106 = zext i1 %105 to i32
  %107 = load i8**, i8*** %7, align 8
  %108 = load i32, i32* %2, align 4
  %109 = sext i32 %108 to i64
  %110 = getelementptr inbounds i8*, i8** %107, i64 %109
  %111 = load i8*, i8** %110, align 8
  %112 = load i32, i32* %3, align 4
  %113 = sext i32 %112 to i64
  %114 = getelementptr inbounds i8, i8* %111, i64 %113
  %115 = load i8, i8* %114, align 1
  %116 = sext i8 %115 to i32
  %117 = icmp ne i32 %116, 0
  br i1 %117, label %118, label %227

118:                                              ; preds = %103
  store i32 0, i32* %4, align 4
  %119 = load i8**, i8*** %7, align 8
  %120 = load i32, i32* %2, align 4
  %121 = sext i32 %120 to i64
  %122 = getelementptr inbounds i8*, i8** %119, i64 %121
  %123 = load i8*, i8** %122, align 8
  %124 = load i32, i32* %3, align 4
  %125 = sext i32 %124 to i64
  %126 = getelementptr inbounds i8, i8* %123, i64 %125
  %127 = load i8, i8* %126, align 1
  %128 = sext i8 %127 to i32
  %129 = icmp slt i32 %128, 48
  br i1 %129, label %202, label %130

130:                                              ; preds = %118
  %131 = load i8**, i8*** %7, align 8
  %132 = load i32, i32* %2, align 4
  %133 = sext i32 %132 to i64
  %134 = getelementptr inbounds i8*, i8** %131, i64 %133
  %135 = load i8*, i8** %134, align 8
  %136 = load i32, i32* %3, align 4
  %137 = sext i32 %136 to i64
  %138 = getelementptr inbounds i8, i8* %135, i64 %137
  %139 = load i8, i8* %138, align 1
  %140 = sext i8 %139 to i32
  %141 = icmp sgt i32 %140, 57
  br i1 %141, label %142, label %154

142:                                              ; preds = %130
  %143 = load i8**, i8*** %7, align 8
  %144 = load i32, i32* %2, align 4
  %145 = sext i32 %144 to i64
  %146 = getelementptr inbounds i8*, i8** %143, i64 %145
  %147 = load i8*, i8** %146, align 8
  %148 = load i32, i32* %3, align 4
  %149 = sext i32 %148 to i64
  %150 = getelementptr inbounds i8, i8* %147, i64 %149
  %151 = load i8, i8* %150, align 1
  %152 = sext i8 %151 to i32
  %153 = icmp slt i32 %152, 65
  br i1 %153, label %202, label %154

154:                                              ; preds = %142, %130
  %155 = load i8**, i8*** %7, align 8
  %156 = load i32, i32* %2, align 4
  %157 = sext i32 %156 to i64
  %158 = getelementptr inbounds i8*, i8** %155, i64 %157
  %159 = load i8*, i8** %158, align 8
  %160 = load i32, i32* %3, align 4
  %161 = sext i32 %160 to i64
  %162 = getelementptr inbounds i8, i8* %159, i64 %161
  %163 = load i8, i8* %162, align 1
  %164 = sext i8 %163 to i32
  %165 = icmp sgt i32 %164, 90
  br i1 %165, label %166, label %190

166:                                              ; preds = %154
  %167 = load i8**, i8*** %7, align 8
  %168 = load i32, i32* %2, align 4
  %169 = sext i32 %168 to i64
  %170 = getelementptr inbounds i8*, i8** %167, i64 %169
  %171 = load i8*, i8** %170, align 8
  %172 = load i32, i32* %3, align 4
  %173 = sext i32 %172 to i64
  %174 = getelementptr inbounds i8, i8* %171, i64 %173
  %175 = load i8, i8* %174, align 1
  %176 = sext i8 %175 to i32
  %177 = icmp slt i32 %176, 97
  br i1 %177, label %178, label %190

178:                                              ; preds = %166
  %179 = load i8**, i8*** %7, align 8
  %180 = load i32, i32* %2, align 4
  %181 = sext i32 %180 to i64
  %182 = getelementptr inbounds i8*, i8** %179, i64 %181
  %183 = load i8*, i8** %182, align 8
  %184 = load i32, i32* %3, align 4
  %185 = sext i32 %184 to i64
  %186 = getelementptr inbounds i8, i8* %183, i64 %185
  %187 = load i8, i8* %186, align 1
  %188 = sext i8 %187 to i32
  %189 = icmp ne i32 %188, 95
  br i1 %189, label %202, label %190

190:                                              ; preds = %178, %166, %154
  %191 = load i8**, i8*** %7, align 8
  %192 = load i32, i32* %2, align 4
  %193 = sext i32 %192 to i64
  %194 = getelementptr inbounds i8*, i8** %191, i64 %193
  %195 = load i8*, i8** %194, align 8
  %196 = load i32, i32* %3, align 4
  %197 = sext i32 %196 to i64
  %198 = getelementptr inbounds i8, i8* %195, i64 %197
  %199 = load i8, i8* %198, align 1
  %200 = sext i8 %199 to i32
  %201 = icmp sgt i32 %200, 122
  br i1 %201, label %202, label %207

202:                                              ; preds = %190, %178, %142, %118
  %203 = load i32*, i32** %5, align 8
  %204 = load i32, i32* %2, align 4
  %205 = sext i32 %204 to i64
  %206 = getelementptr inbounds i32, i32* %203, i64 %205
  store i32 0, i32* %206, align 4
  br label %227

207:                                              ; preds = %190
  %208 = load i32, i32* %4, align 4
  %209 = add nsw i32 %208, 1
  store i32 %209, i32* %4, align 4
  br label %210

210:                                              ; preds = %207
  %211 = load i32, i32* %4, align 4
  %212 = icmp sgt i32 %211, 0
  br i1 %212, label %213, label %218

213:                                              ; preds = %210
  %214 = load i32*, i32** %5, align 8
  %215 = load i32, i32* %2, align 4
  %216 = sext i32 %215 to i64
  %217 = getelementptr inbounds i32, i32* %214, i64 %216
  store i32 1, i32* %217, align 4
  br label %223

218:                                              ; preds = %210
  %219 = load i32*, i32** %5, align 8
  %220 = load i32, i32* %2, align 4
  %221 = sext i32 %220 to i64
  %222 = getelementptr inbounds i32, i32* %219, i64 %221
  store i32 0, i32* %222, align 4
  br label %223

223:                                              ; preds = %218, %213
  br label %224

224:                                              ; preds = %223
  %225 = load i32, i32* %3, align 4
  %226 = add nsw i32 %225, 1
  store i32 %226, i32* %3, align 4
  br label %103

227:                                              ; preds = %202, %103
  br label %228

228:                                              ; preds = %227, %82
  br label %229

229:                                              ; preds = %228
  %230 = load i32, i32* %2, align 4
  %231 = add nsw i32 %230, 1
  store i32 %231, i32* %2, align 4
  br label %22

232:                                              ; preds = %22
  store i32 0, i32* %2, align 4
  br label %233

233:                                              ; preds = %245, %232
  %234 = load i32, i32* %2, align 4
  %235 = load i32, i32* %1, align 4
  %236 = sub nsw i32 %235, 1
  %237 = icmp slt i32 %234, %236
  br i1 %237, label %238, label %248

238:                                              ; preds = %233
  %239 = load i32*, i32** %5, align 8
  %240 = load i32, i32* %2, align 4
  %241 = sext i32 %240 to i64
  %242 = getelementptr inbounds i32, i32* %239, i64 %241
  %243 = load i32, i32* %242, align 4
  %244 = call i32 (i8*, ...) @printf(i8* getelementptr inbounds ([4 x i8], [4 x i8]* @.str.1, i64 0, i64 0), i32 %243)
  br label %245

245:                                              ; preds = %238
  %246 = load i32, i32* %2, align 4
  %247 = add nsw i32 %246, 1
  store i32 %247, i32* %2, align 4
  br label %233

248:                                              ; preds = %233
  %249 = load i32*, i32** %5, align 8
  %250 = load i32, i32* %2, align 4
  %251 = sext i32 %250 to i64
  %252 = getelementptr inbounds i32, i32* %249, i64 %251
  %253 = load i32, i32* %252, align 4
  %254 = call i32 (i8*, ...) @printf(i8* getelementptr inbounds ([3 x i8], [3 x i8]* @.str, i64 0, i64 0), i32 %253)
  ret void
}

declare dso_local i32 @__isoc99_scanf(i8*, ...) #1

; Function Attrs: nounwind
declare dso_local noalias i8* @malloc(i64) #2

declare dso_local i32 @gets(...) #1

declare dso_local i32 @printf(i8*, ...) #1


!llvm.module.flags = !{!0}
!llvm.ident = !{!1}

!0 = !{i32 1, !"wchar_size", i32 4}
!1 = !{!"clang version 10.0.0-4ubuntu1 "}
